; Function Attrs: nounwind uwtable
define internal noundef i32 @zend_clean_module_rsrc_dtors_cb(ptr nocapture noundef readonly %0, ptr nocapture noundef readonly %1) #0 {
  %3 = load ptr, ptr %0, align 8
  %4 = load i32, ptr %1, align 4
  %5 = getelementptr inbounds i8, ptr %3, i64 24
  %6 = load i32, ptr %5, align 8
  %7 = icmp eq i32 %6, %4
  br i1 %7, label %8, label %10

8:                                                ; preds = %2
  %9 = getelementptr inbounds i8, ptr %3, i64 28
  tail call void @zend_hash_apply_with_argument(ptr noundef nonnull getelementptr inbounds (%struct._zend_executor_globals, ptr @executor_globals, i64 0, i32 34), ptr noundef nonnull @clean_module_resource, ptr noundef nonnull %9) #14
  br label %10

10:                                               ; preds = %2, %8
  %.0 = phi i32 [ 1, %8 ], [ 0, %2 ]
  ret i32 %.0
}